; Function Attrs: nounwind uwtable
define dso_local void @ExecEvalFieldStoreForm(ptr noundef readnone captures(none) %0, ptr noundef readonly captures(none) %1, ptr noundef readnone captures(none) %2) local_unnamed_addr #0 {
  %4 = getelementptr inbounds nuw i8, ptr %1, i64 24
  %5 = load ptr, ptr %4, align 8
  %6 = getelementptr inbounds nuw i8, ptr %5, i64 32
  %7 = load i32, ptr %6, align 8
  %8 = getelementptr inbounds nuw i8, ptr %1, i64 32
  %9 = load ptr, ptr %8, align 8
  %10 = tail call fastcc ptr @get_cached_rowtype(i32 noundef %7, i32 noundef -1, ptr noundef %9, ptr noundef null)
  %11 = getelementptr inbounds nuw i8, ptr %1, i64 40
  %12 = load ptr, ptr %11, align 8
  %13 = getelementptr inbounds nuw i8, ptr %1, i64 48
  %14 = load ptr, ptr %13, align 8
  %15 = tail call ptr @heap_form_tuple(ptr noundef %10, ptr noundef %12, ptr noundef %14) #18
  %16 = getelementptr i8, ptr %15, i64 16
  %.val = load ptr, ptr %16, align 8
  %17 = tail call i64 @HeapTupleHeaderGetDatum(ptr noundef %.val) #18
  %18 = getelementptr inbounds nuw i8, ptr %1, i64 8
  %19 = load ptr, ptr %18, align 8
  store i64 %17, ptr %19, align 8
  %20 = getelementptr inbounds nuw i8, ptr %1, i64 16
  %21 = load ptr, ptr %20, align 8
  store i8 0, ptr %21, align 1
  ret void
}